; Function Attrs: mustprogress uwtable
define noundef zeroext i1 @_ZNK6icu_7523StringCharacterIteratoreqERKNS_24ForwardCharacterIteratorE(ptr noundef nonnull align 8 dereferenceable(96) %this, ptr noundef nonnull align 8 dereferenceable(8) %that) unnamed_addr #1 align 2 {
entry:
  %cmp = icmp eq ptr %this, %that
  br i1 %cmp, label %return, label %typeid.end

typeid.end:                                       ; preds = %entry
  %vtable = load ptr, ptr %this, align 8
  %0 = getelementptr inbounds i8, ptr %vtable, i64 -8
  %1 = load ptr, ptr %0, align 8
  %vtable2 = load ptr, ptr %that, align 8
  %2 = getelementptr inbounds i8, ptr %vtable2, i64 -8
  %3 = load ptr, ptr %2, align 8
  %__name.i.i = getelementptr inbounds i8, ptr %1, i64 8
  %4 = load ptr, ptr %__name.i.i, align 8
  %__name2.i.i = getelementptr inbounds i8, ptr %3, i64 8
  %5 = load ptr, ptr %__name2.i.i, align 8
  %cmp.i.i = icmp eq ptr %4, %5
  br i1 %cmp.i.i, label %if.end4, label %if.end.i.i

if.end.i.i:                                       ; preds = %typeid.end
  %6 = load i8, ptr %4, align 1
  %cmp4.not.i.i = icmp eq i8 %6, 42
  br i1 %cmp4.not.i.i, label %return, label %_ZNKSt9type_infoneERKS_.exit

_ZNKSt9type_infoneERKS_.exit:                     ; preds = %if.end.i.i
  %7 = load i8, ptr %5, align 1
  %cmp.i.i.i = icmp eq i8 %7, 42
  %cond.idx.i.i.i = zext i1 %cmp.i.i.i to i64
  %cond.i.i.i = getelementptr inbounds i8, ptr %5, i64 %cond.idx.i.i.i
  %call6.i.i = tail call i32 @strcmp(ptr noundef nonnull dereferenceable(1) %4, ptr noundef nonnull dereferenceable(1) %cond.i.i.i) #6
  %cmp7.i.i.not = icmp eq i32 %call6.i.i, 0
  br i1 %cmp7.i.i.not, label %if.end4, label %return

if.end4:                                          ; preds = %typeid.end, %_ZNKSt9type_infoneERKS_.exit
  %text = getelementptr inbounds i8, ptr %this, i64 32
  %text5 = getelementptr inbounds i8, ptr %that, i64 32
  %fUnion.i.i = getelementptr inbounds i8, ptr %this, i64 40
  %8 = load i16, ptr %fUnion.i.i, align 8
  %conv2.i14.i = and i16 %8, 1
  %tobool.not.i = icmp eq i16 %conv2.i14.i, 0
  br i1 %tobool.not.i, label %if.else.i, label %if.then.i

if.then.i:                                        ; preds = %if.end4
  %fUnion.i5.i = getelementptr inbounds i8, ptr %that, i64 40
  %9 = load i16, ptr %fUnion.i5.i, align 8
  %conv2.i615.i = and i16 %9, 1
  %tobool3.i.not = icmp eq i16 %conv2.i615.i, 0
  br i1 %tobool3.i.not, label %return, label %land.lhs.true

if.else.i:                                        ; preds = %if.end4
  %cmp.i.i.i6 = icmp slt i16 %8, 0
  %10 = ashr i16 %8, 5
  %shr.i.i.i = sext i16 %10 to i32
  %fLength.i.i = getelementptr inbounds i8, ptr %this, i64 44
  %11 = load i32, ptr %fLength.i.i, align 4
  %cond.i.i = select i1 %cmp.i.i.i6, i32 %11, i32 %shr.i.i.i
  %fUnion.i.i7.i = getelementptr inbounds i8, ptr %that, i64 40
  %12 = load i16, ptr %fUnion.i.i7.i, align 8
  %cmp.i.i8.i = icmp slt i16 %12, 0
  %13 = ashr i16 %12, 5
  %shr.i.i9.i = sext i16 %13 to i32
  %fLength.i10.i = getelementptr inbounds i8, ptr %that, i64 44
  %14 = load i32, ptr %fLength.i10.i, align 4
  %cond.i11.i = select i1 %cmp.i.i8.i, i32 %14, i32 %shr.i.i9.i
  %conv2.i1316.i = and i16 %12, 1
  %tobool7.not.i = icmp eq i16 %conv2.i1316.i, 0
  %cmp.i = icmp eq i32 %cond.i.i, %cond.i11.i
  %or.cond.i = and i1 %tobool7.not.i, %cmp.i
  br i1 %or.cond.i, label %_ZNK6icu_7513UnicodeStringeqERKS0_.exit, label %return

_ZNK6icu_7513UnicodeStringeqERKS0_.exit:          ; preds = %if.else.i
  %call8.i = tail call noundef signext i8 @_ZNK6icu_7513UnicodeString8doEqualsERKS0_i(ptr noundef nonnull align 8 dereferenceable(64) %text, ptr noundef nonnull align 8 dereferenceable(64) %text5, i32 noundef %cond.i.i)
  %tobool9.i.not = icmp eq i8 %call8.i, 0
  br i1 %tobool9.i.not, label %return, label %land.lhs.true

land.lhs.true:                                    ; preds = %if.then.i, %_ZNK6icu_7513UnicodeStringeqERKS0_.exit
  %pos = getelementptr inbounds i8, ptr %this, i64 12
  %15 = load i32, ptr %pos, align 4
  %pos7 = getelementptr inbounds i8, ptr %that, i64 12
  %16 = load i32, ptr %pos7, align 4
  %cmp8 = icmp eq i32 %15, %16
  br i1 %cmp8, label %land.lhs.true9, label %return

land.lhs.true9:                                   ; preds = %land.lhs.true
  %begin = getelementptr inbounds i8, ptr %this, i64 16
  %17 = load i32, ptr %begin, align 8
  %begin10 = getelementptr inbounds i8, ptr %that, i64 16
  %18 = load i32, ptr %begin10, align 8
  %cmp11 = icmp eq i32 %17, %18
  br i1 %cmp11, label %land.rhs, label %return

land.rhs:                                         ; preds = %land.lhs.true9
  %end = getelementptr inbounds i8, ptr %this, i64 20
  %19 = load i32, ptr %end, align 4
  %end12 = getelementptr inbounds i8, ptr %that, i64 20
  %20 = load i32, ptr %end12, align 4
  %cmp13 = icmp eq i32 %19, %20
  br label %return

return:                                           ; preds = %if.else.i, %if.end.i.i, %if.then.i, %_ZNK6icu_7513UnicodeStringeqERKS0_.exit, %land.lhs.true, %land.lhs.true9, %land.rhs, %_ZNKSt9type_infoneERKS_.exit, %entry
  %retval.0 = phi i1 [ true, %entry ], [ false, %_ZNKSt9type_infoneERKS_.exit ], [ false, %land.lhs.true9 ], [ false, %land.lhs.true ], [ false, %_ZNK6icu_7513UnicodeStringeqERKS0_.exit ], [ %cmp13, %land.rhs ], [ false, %if.then.i ], [ false, %if.end.i.i ], [ false, %if.else.i ]
  ret i1 %retval.0
}